; Function Attrs: nounwind uwtable
define internal fastcc void @Extra_DeleteParts_rec(ptr noundef captures(none) %0) unnamed_addr #0 {
  %2 = getelementptr inbounds nuw i8, ptr %0, i64 24
  %3 = load ptr, ptr %2, align 8, !tbaa !74
  %.not = icmp eq ptr %3, null
  br i1 %.not, label %5, label %4

4:                                                ; preds = %1
  tail call fastcc void @Extra_DeleteParts_rec(ptr noundef nonnull %3)
  br label %5

5:                                                ; preds = %4, %1
  %6 = getelementptr inbounds nuw i8, ptr %0, i64 32
  %7 = load ptr, ptr %6, align 8, !tbaa !75
  %.not14 = icmp eq ptr %7, null
  br i1 %.not14, label %9, label %8

8:                                                ; preds = %5
  tail call fastcc void @Extra_DeleteParts_rec(ptr noundef nonnull %7)
  br label %9

9:                                                ; preds = %8, %5
  %10 = getelementptr inbounds nuw i8, ptr %0, i64 40
  %11 = load ptr, ptr %10, align 8, !tbaa !56
  %12 = load ptr, ptr %0, align 8, !tbaa !53
  %13 = load ptr, ptr %11, align 8, !tbaa !30
  tail call void @Cudd_RecursiveDeref(ptr noundef %12, ptr noundef %13) #10
  %14 = load ptr, ptr %0, align 8, !tbaa !53
  %15 = getelementptr inbounds nuw i8, ptr %11, i64 8
  %16 = load ptr, ptr %15, align 8, !tbaa !33
  tail call void @Cudd_RecursiveDeref(ptr noundef %14, ptr noundef %16) #10
  %17 = load ptr, ptr %10, align 8, !tbaa !56
  %.not15 = icmp eq ptr %17, null
  br i1 %.not15, label %19, label %18

18:                                               ; preds = %9
  tail call void @free(ptr noundef nonnull %17) #10
  store ptr null, ptr %10, align 8, !tbaa !56
  br label %19

19:                                               ; preds = %9, %18
  ret void
}